ARM GAS  C:\Users\sabri\AppData\Local\Temp\cctrGlH4.s 			page 1


   1              		.syntax unified
   2              		.cpu cortex-m0
   3              		.fpu softvfp
   4              		.eabi_attribute 20, 1
   5              		.eabi_attribute 21, 1
   6              		.eabi_attribute 23, 3
   7              		.eabi_attribute 24, 1
   8              		.eabi_attribute 25, 1
   9              		.eabi_attribute 26, 1
  10              		.eabi_attribute 30, 1
  11              		.eabi_attribute 34, 0
  12              		.eabi_attribute 18, 4
  13              		.thumb
  14              		.syntax unified
  15              		.file	"main.c"
  16              		.text
  17              	.Ltext0:
  18              		.cfi_sections	.debug_frame
  19              		.section	.text.moveTog,"ax",%progbits
  20              		.align	2
  21              		.global	moveTog
  22              		.code	16
  23              		.thumb_func
  24              		.type	moveTog, %function
  25              	moveTog:
  26              	.LFB32:
  27              		.file 1 "control.h"
   1:control.h     **** /* ========================================
   2:control.h     ****  *
   3:control.h     ****  * Copyright SABRINA BUTTON, 2020
   4:control.h     ****  * All Rights Reserved
   5:control.h     ****  * UNPUBLISHED, LICENSED SOFTWARE.
   6:control.h     ****  *
   7:control.h     ****  * CONFIDENTIAL AND PROPRIETARY INFORMATION
   8:control.h     ****  * WHICH IS THE PROPERTY OF SABRINA BUTTON.
   9:control.h     ****  *
  10:control.h     ****  * ========================================*/
  11:control.h     **** 
  12:control.h     **** #include "project.h"
  13:control.h     **** #ifndef MotorController_h
  14:control.h     **** #define MotorController_h
  15:control.h     ****     
  16:control.h     ****     
  17:control.h     **** #define max(a,b) \
  18:control.h     ****    ({ __typeof__ (a) _a = (a); \
  19:control.h     ****        __typeof__ (b) _b = (b); \
  20:control.h     ****      _a > _b ? _a : _b; })
  21:control.h     ****     
  22:control.h     **** #define min(a,b) \
  23:control.h     ****    ({ __typeof__ (a) _a = (a); \
  24:control.h     ****        __typeof__ (b) _b = (b); \
  25:control.h     ****      _a < _b ? _a : _b; })  
  26:control.h     ****    
  27:control.h     **** struct MotorController
  28:control.h     **** {
  29:control.h     ****     
  30:control.h     ****     //pulse width modulation (pwm) and direction (dir) inputs for left (L) and right (R) motors
ARM GAS  C:\Users\sabri\AppData\Local\Temp\cctrGlH4.s 			page 2


  31:control.h     ****     void(*_pwmL_Write)(uint8); 
  32:control.h     ****     void(*_pwmR_Write)(uint8); 
  33:control.h     ****     void(*_dirL_Write)(uint8); 
  34:control.h     ****     void(*_dirR_Write)(uint8); 
  35:control.h     ****     
  36:control.h     ****     //struct *_pwmL,*_dirL, *_pwmR, *_dirR;
  37:control.h     ****     //current net speed 
  38:control.h     ****     int _currentSpeed;
  39:control.h     **** };
  40:control.h     **** 
  41:control.h     **** void moveTog(struct MotorController mc, uint8 speed){
  28              		.loc 1 41 0
  29              		.cfi_startproc
  30              		@ args = 24, pretend = 16, frame = 0
  31              		@ frame_needed = 0, uses_anonymous_args = 0
  32              	.LVL0:
  33 0000 84B0     		sub	sp, sp, #16
  34              		.cfi_def_cfa_offset 16
  35 0002 10B5     		push	{r4, lr}
  36              		.cfi_def_cfa_offset 24
  37              		.cfi_offset 4, -24
  38              		.cfi_offset 14, -20
  39 0004 0290     		str	r0, [sp, #8]
  40 0006 0391     		str	r1, [sp, #12]
  41 0008 0492     		str	r2, [sp, #16]
  42 000a 0593     		str	r3, [sp, #20]
  43 000c 07AB     		add	r3, sp, #28
  44 000e 1C78     		ldrb	r4, [r3]
  45              	.LVL1:
  42:control.h     ****     //since both wheels are moving in unison, have net direction which both mc.dirX variables will 
  43:control.h     ****     uint8 netDir = 0;
  44:control.h     ****     
  45:control.h     ****     if(speed != mc._currentSpeed){
  46              		.loc 1 45 0
  47 0010 069B     		ldr	r3, [sp, #24]
  48 0012 9C42     		cmp	r4, r3
  49 0014 09D0     		beq	.L2
  50              	.LVL2:
  51              	.LBB2:
  46:control.h     ****         //if speed changes, update motor speed
  47:control.h     ****         mc._currentSpeed = speed;
  48:control.h     ****         
  49:control.h     ****         if(speed < 0){
  50:control.h     ****             netDir = 1;
  51:control.h     ****             speed = min(speed, 0);
  52:control.h     ****             speed = max(speed, -255);
  53:control.h     ****             
  54:control.h     ****             if(speed > -6) {speed = 0; netDir = 0;}
  55:control.h     **** 		    else {speed = 255 + speed;}
  56:control.h     ****         }
  57:control.h     ****         
  58:control.h     ****         else{ // fastest speed is 255 which is 255
  59:control.h     **** 		    netDir = 0;
  60:control.h     ****             speed = max(speed, 0); //70
  52              		.loc 1 60 0
  53 0016 002C     		cmp	r4, #0
  54 0018 00DA     		bge	.L3
ARM GAS  C:\Users\sabri\AppData\Local\Temp\cctrGlH4.s 			page 3


  55 001a 0024     		movs	r4, #0
  56              	.LVL3:
  57              	.L3:
  58              	.LBE2:
  59              	.LBB3:
  61:control.h     ****             speed = min(speed, 255);
  60              		.loc 1 61 0
  61 001c FF2C     		cmp	r4, #255
  62 001e 00DD     		ble	.L4
  63 0020 FF24     		movs	r4, #255
  64              	.LVL4:
  65              	.L4:
  66              	.LBE3:
  67 0022 E4B2     		uxtb	r4, r4
  68              	.LVL5:
  62:control.h     **** 			//speed = map(speed,0,255,_minPosSpeed,255);
  63:control.h     **** 			if(speed < 6) {speed = 0; netDir = 0;}
  69              		.loc 1 63 0
  70 0024 052C     		cmp	r4, #5
  71 0026 00D8     		bhi	.L2
  72              	.LVL6:
  73 0028 0024     		movs	r4, #0
  74              	.LVL7:
  75              	.L2:
  64:control.h     ****         }
  65:control.h     ****     }
  66:control.h     ****     
  67:control.h     ****     //write to the pins via pointer functions on passed mc
  68:control.h     ****     (*mc._dirL_Write)(netDir);
  76              		.loc 1 68 0
  77 002a 0020     		movs	r0, #0
  78 002c 049B     		ldr	r3, [sp, #16]
  79 002e 9847     		blx	r3
  80              	.LVL8:
  69:control.h     ****     (*mc._dirR_Write)(netDir);
  81              		.loc 1 69 0
  82 0030 0020     		movs	r0, #0
  83 0032 059B     		ldr	r3, [sp, #20]
  84 0034 9847     		blx	r3
  85              	.LVL9:
  70:control.h     ****     (*mc._pwmL_Write)(speed);
  86              		.loc 1 70 0
  87 0036 2000     		movs	r0, r4
  88 0038 029B     		ldr	r3, [sp, #8]
  89 003a 9847     		blx	r3
  90              	.LVL10:
  71:control.h     ****     (*mc._pwmR_Write)(speed);
  91              		.loc 1 71 0
  92 003c 2000     		movs	r0, r4
  93 003e 039B     		ldr	r3, [sp, #12]
  94 0040 9847     		blx	r3
  95              	.LVL11:
  72:control.h     **** }
  96              		.loc 1 72 0
  97              		@ sp needed
  98 0042 10BC     		pop	{r4}
  99 0044 08BC     		pop	{r3}
ARM GAS  C:\Users\sabri\AppData\Local\Temp\cctrGlH4.s 			page 4


 100 0046 04B0     		add	sp, sp, #16
 101 0048 1847     		bx	r3
 102              		.cfi_endproc
 103              	.LFE32:
 104              		.size	moveTog, .-moveTog
 105 004a C046     		.section	.text.stopMoving,"ax",%progbits
 106              		.align	2
 107              		.global	stopMoving
 108              		.code	16
 109              		.thumb_func
 110              		.type	stopMoving, %function
 111              	stopMoving:
 112              	.LFB33:
  73:control.h     **** 
  74:control.h     **** void stopMoving(struct MotorController mc){
 113              		.loc 1 74 0
 114              		.cfi_startproc
 115              		@ args = 20, pretend = 16, frame = 0
 116              		@ frame_needed = 0, uses_anonymous_args = 0
 117 0000 84B0     		sub	sp, sp, #16
 118              		.cfi_def_cfa_offset 16
 119 0002 10B5     		push	{r4, lr}
 120              		.cfi_def_cfa_offset 24
 121              		.cfi_offset 4, -24
 122              		.cfi_offset 14, -20
 123 0004 0290     		str	r0, [sp, #8]
 124 0006 0391     		str	r1, [sp, #12]
 125 0008 0492     		str	r2, [sp, #16]
 126 000a 0593     		str	r3, [sp, #20]
  75:control.h     ****     //write to the pins via pointers
  76:control.h     ****    (*mc._dirL_Write)(1);
 127              		.loc 1 76 0
 128 000c 0120     		movs	r0, #1
 129 000e 9047     		blx	r2
 130              	.LVL12:
  77:control.h     ****    (*mc._dirR_Write)(1);
 131              		.loc 1 77 0
 132 0010 0120     		movs	r0, #1
 133 0012 059B     		ldr	r3, [sp, #20]
 134 0014 9847     		blx	r3
 135              	.LVL13:
  78:control.h     ****    (*mc._pwmL_Write)(1);
 136              		.loc 1 78 0
 137 0016 0120     		movs	r0, #1
 138 0018 029B     		ldr	r3, [sp, #8]
 139 001a 9847     		blx	r3
 140              	.LVL14:
  79:control.h     ****    (*mc._pwmR_Write)(1);
 141              		.loc 1 79 0
 142 001c 0120     		movs	r0, #1
 143 001e 039B     		ldr	r3, [sp, #12]
 144 0020 9847     		blx	r3
 145              	.LVL15:
  80:control.h     ****     
  81:control.h     ****     //reset speed to 0
  82:control.h     ****     mc._currentSpeed = 0;
  83:control.h     **** }
ARM GAS  C:\Users\sabri\AppData\Local\Temp\cctrGlH4.s 			page 5


 146              		.loc 1 83 0
 147              		@ sp needed
 148 0022 10BC     		pop	{r4}
 149 0024 08BC     		pop	{r3}
 150 0026 04B0     		add	sp, sp, #16
 151 0028 1847     		bx	r3
 152              		.cfi_endproc
 153              	.LFE33:
 154              		.size	stopMoving, .-stopMoving
 155 002a C046     		.section	.text.main,"ax",%progbits
 156              		.align	2
 157              		.global	main
 158              		.code	16
 159              		.thumb_func
 160              		.type	main, %function
 161              	main:
 162              	.LFB34:
 163              		.file 2 "main.c"
   1:main.c        **** /* ========================================
   2:main.c        ****  *
   3:main.c        ****  * Copyright SABRINA BUTTON, 2020
   4:main.c        ****  * All Rights Reserved
   5:main.c        ****  * UNPUBLISHED, LICENSED SOFTWARE.
   6:main.c        ****  *
   7:main.c        ****  * CONFIDENTIAL AND PROPRIETARY INFORMATION
   8:main.c        ****  * WHICH IS THE PROPERTY OF SABRINA BUTTON.
   9:main.c        ****  *
  10:main.c        ****  * ========================================
  11:main.c        **** */
  12:main.c        **** #include "project.h"
  13:main.c        **** #include "control.h"
  14:main.c        **** 
  15:main.c        **** int main(void)
  16:main.c        **** {
 164              		.loc 2 16 0
 165              		.cfi_startproc
 166              		@ args = 0, pretend = 0, frame = 32
 167              		@ frame_needed = 0, uses_anonymous_args = 0
 168 0000 10B5     		push	{r4, lr}
 169              		.cfi_def_cfa_offset 8
 170              		.cfi_offset 4, -8
 171              		.cfi_offset 14, -4
 172 0002 8AB0     		sub	sp, sp, #40
 173              		.cfi_def_cfa_offset 48
  17:main.c        ****     CyGlobalIntEnable; /* Enable global interrupts. */
 174              		.loc 2 17 0
 175              		.syntax divided
 176              	@ 17 "main.c" 1
 177 0004 62B6     		CPSIE   i
 178              	@ 0 "" 2
  18:main.c        **** 
  19:main.c        ****     /* Place your initialization/startup code here (e.g. MyInst_Start()) */
  20:main.c        ****    struct  MotorController mc;
  21:main.c        ****     
  22:main.c        ****    mc._pwmL_Write = &pwmA_Write;
 179              		.loc 2 22 0
 180              		.thumb
ARM GAS  C:\Users\sabri\AppData\Local\Temp\cctrGlH4.s 			page 6


 181              		.syntax unified
 182 0006 154B     		ldr	r3, .L9
 183 0008 0593     		str	r3, [sp, #20]
  23:main.c        ****    mc._pwmR_Write = &pwmB_Write;
 184              		.loc 2 23 0
 185 000a 154B     		ldr	r3, .L9+4
 186 000c 0693     		str	r3, [sp, #24]
  24:main.c        ****    mc._dirL_Write = &dirA_Write;
 187              		.loc 2 24 0
 188 000e 154B     		ldr	r3, .L9+8
 189 0010 0793     		str	r3, [sp, #28]
  25:main.c        ****    mc._dirR_Write = &dirB_Write;
 190              		.loc 2 25 0
 191 0012 154B     		ldr	r3, .L9+12
 192 0014 0893     		str	r3, [sp, #32]
 193              	.L8:
  26:main.c        ****     
  27:main.c        ****     
  28:main.c        ****     for(;;)
  29:main.c        ****     {
  30:main.c        ****         /* Place your application code here. */
  31:main.c        ****         BlueLED_Write(1);
 194              		.loc 2 31 0 discriminator 1
 195 0016 0120     		movs	r0, #1
 196 0018 FFF7FEFF 		bl	BlueLED_Write
 197              	.LVL16:
  32:main.c        ****         moveTog(mc, 255);
 198              		.loc 2 32 0 discriminator 1
 199 001c FF23     		movs	r3, #255
 200 001e 0193     		str	r3, [sp, #4]
 201 0020 099B     		ldr	r3, [sp, #36]
 202 0022 0393     		str	r3, [sp, #12]
 203 0024 0093     		str	r3, [sp]
 204 0026 0598     		ldr	r0, [sp, #20]
 205 0028 0699     		ldr	r1, [sp, #24]
 206 002a 079A     		ldr	r2, [sp, #28]
 207 002c 089B     		ldr	r3, [sp, #32]
 208 002e FFF7FEFF 		bl	moveTog
 209              	.LVL17:
  33:main.c        ****         CyDelay(5000);
 210              		.loc 2 33 0 discriminator 1
 211 0032 0E4C     		ldr	r4, .L9+16
 212 0034 2000     		movs	r0, r4
 213 0036 FFF7FEFF 		bl	CyDelay
 214              	.LVL18:
  34:main.c        ****         
  35:main.c        ****         BlueLED_Write(0);
 215              		.loc 2 35 0 discriminator 1
 216 003a 0020     		movs	r0, #0
 217 003c FFF7FEFF 		bl	BlueLED_Write
 218              	.LVL19:
  36:main.c        ****         stopMoving(mc);
 219              		.loc 2 36 0 discriminator 1
 220 0040 099B     		ldr	r3, [sp, #36]
 221 0042 0393     		str	r3, [sp, #12]
 222 0044 0093     		str	r3, [sp]
 223 0046 0598     		ldr	r0, [sp, #20]
ARM GAS  C:\Users\sabri\AppData\Local\Temp\cctrGlH4.s 			page 7


 224 0048 0699     		ldr	r1, [sp, #24]
 225 004a 079A     		ldr	r2, [sp, #28]
 226 004c 089B     		ldr	r3, [sp, #32]
 227 004e FFF7FEFF 		bl	stopMoving
 228              	.LVL20:
  37:main.c        ****         CyDelay(5000);
 229              		.loc 2 37 0 discriminator 1
 230 0052 2000     		movs	r0, r4
 231 0054 FFF7FEFF 		bl	CyDelay
 232              	.LVL21:
 233 0058 DDE7     		b	.L8
 234              	.L10:
 235 005a C046     		.align	2
 236              	.L9:
 237 005c 00000000 		.word	pwmA_Write
 238 0060 00000000 		.word	pwmB_Write
 239 0064 00000000 		.word	dirA_Write
 240 0068 00000000 		.word	dirB_Write
 241 006c 88130000 		.word	5000
 242              		.cfi_endproc
 243              	.LFE34:
 244              		.size	main, .-main
 245              		.text
 246              	.Letext0:
 247              		.file 3 "Generated_Source\\PSoC4/BlueLED.h"
 248              		.file 4 "Generated_Source\\PSoC4/CyLib.h"
 249              		.file 5 "Generated_Source\\PSoC4/cytypes.h"